; Function Attrs: nounwind sspstrong uwtable
define dso_local i64 @rb_time_utc_offset(i64 noundef %0) #1 {
  %2 = tail call ptr @rb_check_typeddata(i64 noundef %0, ptr noundef nonnull @time_data_type) #21
  %3 = getelementptr inbounds nuw i8, ptr %2, i64 40
  %4 = load i64, ptr %3, align 8
  %5 = and i64 %4, 61572651155456
  switch i64 %5, label %9 [
    i64 26388279066624, label %6
    i64 8796093022208, label %24
  ]

6:                                                ; preds = %1
  %7 = load i64, ptr @rb_eTypeError, align 8, !tbaa !11
  %8 = tail call i64 @rb_obj_class(i64 noundef %0) #21
  tail call void (i64, ptr, ...) @rb_raise(i64 noundef %7, ptr noundef nonnull @.str.92, i64 noundef %8) #22
  unreachable

9:                                                ; preds = %1
  %10 = and i64 %4, 70368744177664
  %11 = icmp eq i64 %10, 0
  br i1 %11, label %12, label %time_get_tm.exit

12:                                               ; preds = %9
  %13 = lshr i64 %4, 43
  %14 = trunc nuw nsw i64 %13 to i32
  %15 = and i32 %14, 7
  switch i32 %15, label %20 [
    i32 1, label %16
    i32 2, label %18
  ]

16:                                               ; preds = %12
  %17 = tail call i64 @time_gmtime(i64 noundef %0)
  br label %time_get_tm.exit

18:                                               ; preds = %12
  %19 = tail call fastcc i64 @time_fixoff(i64 noundef %0)
  br label %time_get_tm.exit

20:                                               ; preds = %12
  %21 = tail call fastcc i64 @time_localtime(i64 noundef %0)
  br label %time_get_tm.exit

time_get_tm.exit:                                 ; preds = %20, %18, %16, %9
  %22 = getelementptr inbounds nuw i8, ptr %2, i64 24
  %23 = load i64, ptr %22, align 8, !tbaa !39
  br label %24

24:                                               ; preds = %1, %time_get_tm.exit
  %.0 = phi i64 [ %23, %time_get_tm.exit ], [ 1, %1 ]
  ret i64 %.0
}